target datalayout = "e-m:e-p270:32:32-p271:32:32-p272:64:64-i64:64-i128:128-f80:128-n8:16:32:64-S128"
target triple = "x86_64-pc-linux-gnu"

; Function Attrs: alwaysinline nounwind uwtable
define internal void @do_bilin_2d_c(ptr noundef %0, i64 noundef %1, ptr noundef %2, i64 noundef %3, i32 noundef %4, i32 noundef %5, i32 noundef %6, i32 noundef %7, i32 noundef %8) #6 {
  %10 = alloca ptr, align 8
  %11 = alloca i64, align 8
  %12 = alloca ptr, align 8
  %13 = alloca i64, align 8
  %14 = alloca i32, align 4
  %15 = alloca i32, align 4
  %16 = alloca i32, align 4
  %17 = alloca i32, align 4
  %18 = alloca i32, align 4
  %19 = alloca [4160 x i8], align 16
  %20 = alloca ptr, align 8
  %21 = alloca i32, align 4
  %22 = alloca ptr, align 8
  %23 = alloca ptr, align 8
  %24 = alloca i32, align 4
  %25 = alloca i32, align 4
  store ptr %0, ptr %10, align 8, !tbaa !10
  store i64 %1, ptr %11, align 8, !tbaa !12
  store ptr %2, ptr %12, align 8, !tbaa !10
  store i64 %3, ptr %13, align 8, !tbaa !12
  store i32 %4, ptr %14, align 4, !tbaa !15
  store i32 %5, ptr %15, align 4, !tbaa !15
  store i32 %6, ptr %16, align 4, !tbaa !15
  store i32 %7, ptr %17, align 4, !tbaa !15
  store i32 %8, ptr %18, align 4, !tbaa !15
  call void @llvm.lifetime.start.p0(i64 4160, ptr %19) #10
  call void @llvm.lifetime.start.p0(i64 8, ptr %20) #10
  %26 = getelementptr inbounds [4160 x i8], ptr %19, i64 0, i64 0
  store ptr %26, ptr %20, align 8, !tbaa !10
  call void @llvm.lifetime.start.p0(i64 4, ptr %21) #10
  %27 = load i32, ptr %15, align 4, !tbaa !15
  %28 = add nsw i32 %27, 1
  store i32 %28, ptr %21, align 4, !tbaa !15
  call void @llvm.lifetime.start.p0(i64 8, ptr %22) #10
  %29 = load ptr, ptr %10, align 8, !tbaa !10
  store ptr %29, ptr %22, align 8, !tbaa !10
  call void @llvm.lifetime.start.p0(i64 8, ptr %23) #10
  %30 = load ptr, ptr %12, align 8, !tbaa !10
  store ptr %30, ptr %23, align 8, !tbaa !10
  %31 = load i64, ptr %11, align 8, !tbaa !12
  %32 = udiv i64 %31, 1
  store i64 %32, ptr %11, align 8, !tbaa !12
  %33 = load i64, ptr %13, align 8, !tbaa !12
  %34 = udiv i64 %33, 1
  store i64 %34, ptr %13, align 8, !tbaa !12
  br label %35

35:                                               ; preds = %80, %9
  call void @llvm.lifetime.start.p0(i64 4, ptr %24) #10
  store i32 0, ptr %24, align 4, !tbaa !15
  br label %36

36:                                               ; preds = %71, %35
  %37 = load i32, ptr %24, align 4, !tbaa !15
  %38 = load i32, ptr %14, align 4, !tbaa !15
  %39 = icmp slt i32 %37, %38
  br i1 %39, label %40, label %74

40:                                               ; preds = %36
  %41 = load ptr, ptr %23, align 8, !tbaa !10
  %42 = load i32, ptr %24, align 4, !tbaa !15
  %43 = sext i32 %42 to i64
  %44 = getelementptr inbounds i8, ptr %41, i64 %43
  %45 = load i8, ptr %44, align 1, !tbaa !14
  %46 = zext i8 %45 to i32
  %47 = load i32, ptr %16, align 4, !tbaa !15
  %48 = load ptr, ptr %23, align 8, !tbaa !10
  %49 = load i32, ptr %24, align 4, !tbaa !15
  %50 = add nsw i32 %49, 1
  %51 = sext i32 %50 to i64
  %52 = getelementptr inbounds i8, ptr %48, i64 %51
  %53 = load i8, ptr %52, align 1, !tbaa !14
  %54 = zext i8 %53 to i32
  %55 = load ptr, ptr %23, align 8, !tbaa !10
  %56 = load i32, ptr %24, align 4, !tbaa !15
  %57 = sext i32 %56 to i64
  %58 = getelementptr inbounds i8, ptr %55, i64 %57
  %59 = load i8, ptr %58, align 1, !tbaa !14
  %60 = zext i8 %59 to i32
  %61 = sub nsw i32 %54, %60
  %62 = mul nsw i32 %47, %61
  %63 = add nsw i32 %62, 8
  %64 = ashr i32 %63, 4
  %65 = add nsw i32 %46, %64
  %66 = trunc i32 %65 to i8
  %67 = load ptr, ptr %20, align 8, !tbaa !10
  %68 = load i32, ptr %24, align 4, !tbaa !15
  %69 = sext i32 %68 to i64
  %70 = getelementptr inbounds i8, ptr %67, i64 %69
  store i8 %66, ptr %70, align 1, !tbaa !14
  br label %71

71:                                               ; preds = %40
  %72 = load i32, ptr %24, align 4, !tbaa !15
  %73 = add nsw i32 %72, 1
  store i32 %73, ptr %24, align 4, !tbaa !15
  br label %36, !llvm.loop !150

74:                                               ; preds = %36
  %75 = load ptr, ptr %20, align 8, !tbaa !10
  %76 = getelementptr inbounds i8, ptr %75, i64 64
  store ptr %76, ptr %20, align 8, !tbaa !10
  %77 = load i64, ptr %13, align 8, !tbaa !12
  %78 = load ptr, ptr %23, align 8, !tbaa !10
  %79 = getelementptr inbounds i8, ptr %78, i64 %77
  store ptr %79, ptr %23, align 8, !tbaa !10
  call void @llvm.lifetime.end.p0(i64 4, ptr %24) #10
  br label %80

80:                                               ; preds = %74
  %81 = load i32, ptr %21, align 4, !tbaa !15
  %82 = add nsw i32 %81, -1
  store i32 %82, ptr %21, align 4, !tbaa !15
  %83 = icmp ne i32 %82, 0
  br i1 %83, label %35, label %84, !llvm.loop !151

84:                                               ; preds = %80
  %85 = getelementptr inbounds [4160 x i8], ptr %19, i64 0, i64 0
  store ptr %85, ptr %20, align 8, !tbaa !10
  br label %86

86:                                               ; preds = %175, %84
  call void @llvm.lifetime.start.p0(i64 4, ptr %25) #10
  store i32 0, ptr %25, align 4, !tbaa !15
  br label %87

87:                                               ; preds = %166, %86
  %88 = load i32, ptr %25, align 4, !tbaa !15
  %89 = load i32, ptr %14, align 4, !tbaa !15
  %90 = icmp slt i32 %88, %89
  br i1 %90, label %91, label %169

91:                                               ; preds = %87
  %92 = load i32, ptr %18, align 4, !tbaa !15
  %93 = icmp ne i32 %92, 0
  br i1 %93, label %94, label %134

94:                                               ; preds = %91
  %95 = load ptr, ptr %22, align 8, !tbaa !10
  %96 = load i32, ptr %25, align 4, !tbaa !15
  %97 = sext i32 %96 to i64
  %98 = getelementptr inbounds i8, ptr %95, i64 %97
  %99 = load i8, ptr %98, align 1, !tbaa !14
  %100 = zext i8 %99 to i32
  %101 = load ptr, ptr %20, align 8, !tbaa !10
  %102 = load i32, ptr %25, align 4, !tbaa !15
  %103 = sext i32 %102 to i64
  %104 = getelementptr inbounds i8, ptr %101, i64 %103
  %105 = load i8, ptr %104, align 1, !tbaa !14
  %106 = zext i8 %105 to i32
  %107 = load i32, ptr %17, align 4, !tbaa !15
  %108 = load ptr, ptr %20, align 8, !tbaa !10
  %109 = load i32, ptr %25, align 4, !tbaa !15
  %110 = add nsw i32 %109, 64
  %111 = sext i32 %110 to i64
  %112 = getelementptr inbounds i8, ptr %108, i64 %111
  %113 = load i8, ptr %112, align 1, !tbaa !14
  %114 = zext i8 %113 to i32
  %115 = load ptr, ptr %20, align 8, !tbaa !10
  %116 = load i32, ptr %25, align 4, !tbaa !15
  %117 = sext i32 %116 to i64
  %118 = getelementptr inbounds i8, ptr %115, i64 %117
  %119 = load i8, ptr %118, align 1, !tbaa !14
  %120 = zext i8 %119 to i32
  %121 = sub nsw i32 %114, %120
  %122 = mul nsw i32 %107, %121
  %123 = add nsw i32 %122, 8
  %124 = ashr i32 %123, 4
  %125 = add nsw i32 %106, %124
  %126 = add nsw i32 %100, %125
  %127 = add nsw i32 %126, 1
  %128 = ashr i32 %127, 1
  %129 = trunc i32 %128 to i8
  %130 = load ptr, ptr %22, align 8, !tbaa !10
  %131 = load i32, ptr %25, align 4, !tbaa !15
  %132 = sext i32 %131 to i64
  %133 = getelementptr inbounds i8, ptr %130, i64 %132
  store i8 %129, ptr %133, align 1, !tbaa !14
  br label %165

134:                                              ; preds = %91
  %135 = load ptr, ptr %20, align 8, !tbaa !10
  %136 = load i32, ptr %25, align 4, !tbaa !15
  %137 = sext i32 %136 to i64
  %138 = getelementptr inbounds i8, ptr %135, i64 %137
  %139 = load i8, ptr %138, align 1, !tbaa !14
  %140 = zext i8 %139 to i32
  %141 = load i32, ptr %17, align 4, !tbaa !15
  %142 = load ptr, ptr %20, align 8, !tbaa !10
  %143 = load i32, ptr %25, align 4, !tbaa !15
  %144 = add nsw i32 %143, 64
  %145 = sext i32 %144 to i64
  %146 = getelementptr inbounds i8, ptr %142, i64 %145
  %147 = load i8, ptr %146, align 1, !tbaa !14
  %148 = zext i8 %147 to i32
  %149 = load ptr, ptr %20, align 8, !tbaa !10
  %150 = load i32, ptr %25, align 4, !tbaa !15
  %151 = sext i32 %150 to i64
  %152 = getelementptr inbounds i8, ptr %149, i64 %151
  %153 = load i8, ptr %152, align 1, !tbaa !14
  %154 = zext i8 %153 to i32
  %155 = sub nsw i32 %148, %154
  %156 = mul nsw i32 %141, %155
  %157 = add nsw i32 %156, 8
  %158 = ashr i32 %157, 4
  %159 = add nsw i32 %140, %158
  %160 = trunc i32 %159 to i8
  %161 = load ptr, ptr %22, align 8, !tbaa !10
  %162 = load i32, ptr %25, align 4, !tbaa !15
  %163 = sext i32 %162 to i64
  %164 = getelementptr inbounds i8, ptr %161, i64 %163
  store i8 %160, ptr %164, align 1, !tbaa !14
  br label %165

165:                                              ; preds = %134, %94
  br label %166

166:                                              ; preds = %165
  %167 = load i32, ptr %25, align 4, !tbaa !15
  %168 = add nsw i32 %167, 1
  store i32 %168, ptr %25, align 4, !tbaa !15
  br label %87, !llvm.loop !152

169:                                              ; preds = %87
  %170 = load ptr, ptr %20, align 8, !tbaa !10
  %171 = getelementptr inbounds i8, ptr %170, i64 64
  store ptr %171, ptr %20, align 8, !tbaa !10
  %172 = load i64, ptr %11, align 8, !tbaa !12
  %173 = load ptr, ptr %22, align 8, !tbaa !10
  %174 = getelementptr inbounds i8, ptr %173, i64 %172
  store ptr %174, ptr %22, align 8, !tbaa !10
  call void @llvm.lifetime.end.p0(i64 4, ptr %25) #10
  br label %175

175:                                              ; preds = %169
  %176 = load i32, ptr %15, align 4, !tbaa !15
  %177 = add nsw i32 %176, -1
  store i32 %177, ptr %15, align 4, !tbaa !15
  %178 = icmp ne i32 %177, 0
  br i1 %178, label %86, label %179, !llvm.loop !153

179:                                              ; preds = %175
  call void @llvm.lifetime.end.p0(i64 8, ptr %23) #10
  call void @llvm.lifetime.end.p0(i64 8, ptr %22) #10
  call void @llvm.lifetime.end.p0(i64 4, ptr %21) #10
  call void @llvm.lifetime.end.p0(i64 8, ptr %20) #10
  call void @llvm.lifetime.end.p0(i64 4160, ptr %19) #10
  ret void
}

; Function Attrs: noinline nounwind uwtable
define internal void @put_bilin_2d_hv_c(ptr noundef %0, i64 noundef %1, ptr noundef %2, i64 noundef %3, i32 noundef %4, i32 noundef %5, i32 noundef %6, i32 noundef %7) #8 {
  %9 = alloca ptr, align 8
  %10 = alloca i64, align 8
  %11 = alloca ptr, align 8
  %12 = alloca i64, align 8
  %13 = alloca i32, align 4
  %14 = alloca i32, align 4
  %15 = alloca i32, align 4
  %16 = alloca i32, align 4
  store ptr %0, ptr %9, align 8, !tbaa !10
  store i64 %1, ptr %10, align 8, !tbaa !12
  store ptr %2, ptr %11, align 8, !tbaa !10
  store i64 %3, ptr %12, align 8, !tbaa !12
  store i32 %4, ptr %13, align 4, !tbaa !15
  store i32 %5, ptr %14, align 4, !tbaa !15
  store i32 %6, ptr %15, align 4, !tbaa !15
  store i32 %7, ptr %16, align 4, !tbaa !15
  %17 = load ptr, ptr %9, align 8, !tbaa !10
  %18 = load i64, ptr %10, align 8, !tbaa !12
  %19 = load ptr, ptr %11, align 8, !tbaa !10
  %20 = load i64, ptr %12, align 8, !tbaa !12
  %21 = load i32, ptr %13, align 4, !tbaa !15
  %22 = load i32, ptr %14, align 4, !tbaa !15
  %23 = load i32, ptr %15, align 4, !tbaa !15
  %24 = load i32, ptr %16, align 4, !tbaa !15
  call void @do_bilin_2d_c(ptr noundef %17, i64 noundef %18, ptr noundef %19, i64 noundef %20, i32 noundef %21, i32 noundef %22, i32 noundef %23, i32 noundef %24, i32 noundef 0)
  ret void
}