; Function Attrs: nofree noinline norecurse nosync nounwind memory(argmem: readwrite) uwtable
define internal fastcc void @put_bilin_2d_hv_c(ptr noundef writeonly captures(none) %0, i64 noundef %1, ptr noundef readonly captures(none) %2, i64 noundef %3, i32 noundef range(i32 4, 65) %4, i32 noundef %5, i32 noundef %6, i32 noundef %7) unnamed_addr #9 {
  %9 = alloca [4160 x i8], align 16
  call void @llvm.lifetime.start.p0(i64 4160, ptr nonnull %9) #13
  %10 = add nsw i32 %5, 1
  %wide.trip.count = zext nneg i32 %4 to i64
  br label %11

11:                                               ; preds = %25, %8
  %.052.i = phi ptr [ %9, %8 ], [ %26, %25 ]
  %.051.i = phi i32 [ %10, %8 ], [ %28, %25 ]
  %.049.i = phi ptr [ %2, %8 ], [ %27, %25 ]
  %.pre = load i8, ptr %.049.i, align 1, !tbaa !8
  br label %12

12:                                               ; preds = %11, %12
  %13 = phi i8 [ %.pre, %11 ], [ %16, %12 ]
  %indvars.iv = phi i64 [ 0, %11 ], [ %indvars.iv.next, %12 ]
  %14 = zext i8 %13 to i32
  %indvars.iv.next = add nuw nsw i64 %indvars.iv, 1
  %15 = getelementptr inbounds nuw i8, ptr %.049.i, i64 %indvars.iv.next
  %16 = load i8, ptr %15, align 1, !tbaa !8
  %17 = zext i8 %16 to i32
  %18 = sub nsw i32 %17, %14
  %19 = mul nsw i32 %18, %6
  %20 = add nsw i32 %19, 8
  %21 = lshr i32 %20, 4
  %22 = trunc i32 %21 to i8
  %23 = add i8 %13, %22
  %24 = getelementptr inbounds nuw i8, ptr %.052.i, i64 %indvars.iv
  store i8 %23, ptr %24, align 1, !tbaa !8
  %exitcond.not = icmp eq i64 %indvars.iv.next, %wide.trip.count
  br i1 %exitcond.not, label %25, label %12, !llvm.loop !185

25:                                               ; preds = %12
  %26 = getelementptr inbounds nuw i8, ptr %.052.i, i64 64
  %27 = getelementptr inbounds i8, ptr %.049.i, i64 %3
  %28 = add nsw i32 %.051.i, -1
  %.not.i = icmp eq i32 %28, 0
  br i1 %.not.i, label %.preheader, label %11, !llvm.loop !186

.preheader:                                       ; preds = %25, %43
  %.053.i = phi i32 [ %46, %43 ], [ %5, %25 ]
  %.1.i = phi ptr [ %44, %43 ], [ %9, %25 ]
  %.050.i = phi ptr [ %45, %43 ], [ %0, %25 ]
  br label %29

29:                                               ; preds = %.preheader, %29
  %indvars.iv10 = phi i64 [ 0, %.preheader ], [ %indvars.iv.next11, %29 ]
  %30 = getelementptr inbounds nuw i8, ptr %.1.i, i64 %indvars.iv10
  %31 = load i8, ptr %30, align 1, !tbaa !8
  %32 = zext i8 %31 to i32
  %33 = getelementptr inbounds nuw i8, ptr %30, i64 64
  %34 = load i8, ptr %33, align 1, !tbaa !8
  %35 = zext i8 %34 to i32
  %36 = sub nsw i32 %35, %32
  %37 = mul nsw i32 %36, %7
  %38 = add nsw i32 %37, 8
  %39 = lshr i32 %38, 4
  %40 = trunc i32 %39 to i8
  %41 = add i8 %31, %40
  %42 = getelementptr inbounds nuw i8, ptr %.050.i, i64 %indvars.iv10
  store i8 %41, ptr %42, align 1, !tbaa !8
  %indvars.iv.next11 = add nuw nsw i64 %indvars.iv10, 1
  %exitcond14.not = icmp eq i64 %indvars.iv.next11, %wide.trip.count
  br i1 %exitcond14.not, label %43, label %29, !llvm.loop !187

43:                                               ; preds = %29
  %44 = getelementptr inbounds nuw i8, ptr %.1.i, i64 64
  %45 = getelementptr inbounds i8, ptr %.050.i, i64 %1
  %46 = add nsw i32 %.053.i, -1
  %.not57.i = icmp eq i32 %46, 0
  br i1 %.not57.i, label %do_bilin_2d_c.exit, label %.preheader, !llvm.loop !188

do_bilin_2d_c.exit:                               ; preds = %43
  call void @llvm.lifetime.end.p0(i64 4160, ptr nonnull %9) #13
  ret void
}